target datalayout = "e-m:e-p270:32:32-p271:32:32-p272:64:64-i64:64-i128:128-f80:128-n8:16:32:64-S128"
target triple = "x86_64-pc-linux-gnu"

%"class.cv::bioinspired::ParvoRetinaFilter" = type { ptr, %"class.cv::bioinspired::BasicRetinaFilter", %"class.std::valarray", %"class.std::valarray", %"class.std::valarray", %"class.std::valarray", %"class.std::valarray", %"class.std::valarray", %"class.std::valarray", ptr, ptr }
%"class.cv::bioinspired::BasicRetinaFilter" = type { %"class.cv::bioinspired::TemplateBuffer", %"class.std::valarray", i32, i32, %"class.std::valarray", %"class.std::valarray", %"class.std::valarray", float, float, float, float, float, float, float, float }
%"class.cv::bioinspired::TemplateBuffer" = type { ptr, %"class.std::valarray", i64, i64, i64, i64, i64 }
%"class.std::valarray" = type { i64, ptr }
%"class.cv::Range" = type { i32, i32 }
%"class.cv::bioinspired::ParvoRetinaFilter::Parallel_OPL_OnOffWaysComputing" = type { %"class.cv::ParallelLoopBody", ptr, ptr, ptr, ptr, ptr, ptr }
%"class.cv::ParallelLoopBody" = type { ptr }

@_ZTVN2cv16ParallelLoopBodyE = available_externally unnamed_addr constant { [5 x ptr] } { [5 x ptr] [ptr null, ptr @_ZTIN2cv16ParallelLoopBodyE, ptr @_ZN2cv16ParallelLoopBodyD1Ev, ptr @_ZN2cv16ParallelLoopBodyD0Ev, ptr @__cxa_pure_virtual] }, align 8

; Function Attrs: inlinehint mustprogress nounwind uwtable
define linkonce_odr hidden void @_ZN2cv16ParallelLoopBodyC2Ev(ptr noundef nonnull align 8 dereferenceable(8) %0) unnamed_addr #6 comdat align 2 {
  %2 = alloca ptr, align 8
  store ptr %0, ptr %2, align 8, !tbaa !54
  %3 = load ptr, ptr %2, align 8
  store ptr getelementptr inbounds inrange(-16, 24) ({ [5 x ptr] }, ptr @_ZTVN2cv16ParallelLoopBodyE, i32 0, i32 0, i32 2), ptr %3, align 8, !tbaa !10
  ret void
}

; Function Attrs: mustprogress nounwind uwtable
define linkonce_odr hidden void @_ZN2cv11bioinspired17ParvoRetinaFilter31Parallel_OPL_OnOffWaysComputingC2EPfS3_S3_S3_S3_S3_(ptr noundef nonnull align 8 dereferenceable(56) %0, ptr noundef %1, ptr noundef %2, ptr noundef %3, ptr noundef %4, ptr noundef %5, ptr noundef %6) unnamed_addr #7 comdat align 2 {
  %8 = alloca ptr, align 8
  %9 = alloca ptr, align 8
  %10 = alloca ptr, align 8
  %11 = alloca ptr, align 8
  %12 = alloca ptr, align 8
  %13 = alloca ptr, align 8
  %14 = alloca ptr, align 8
  store ptr %0, ptr %8, align 8, !tbaa !44
  store ptr %1, ptr %9, align 8, !tbaa !30
  store ptr %2, ptr %10, align 8, !tbaa !30
  store ptr %3, ptr %11, align 8, !tbaa !30
  store ptr %4, ptr %12, align 8, !tbaa !30
  store ptr %5, ptr %13, align 8, !tbaa !30
  store ptr %6, ptr %14, align 8, !tbaa !30
  %15 = load ptr, ptr %8, align 8
  call void @_ZN2cv16ParallelLoopBodyC2Ev(ptr noundef nonnull align 8 dereferenceable(8) %15) #3
  store ptr getelementptr inbounds inrange(-16, 24) ({ [5 x ptr] }, ptr @_ZTVN2cv11bioinspired17ParvoRetinaFilter31Parallel_OPL_OnOffWaysComputingE, i32 0, i32 0, i32 2), ptr %15, align 8, !tbaa !10
  %16 = getelementptr inbounds nuw %"class.cv::bioinspired::ParvoRetinaFilter::Parallel_OPL_OnOffWaysComputing", ptr %15, i32 0, i32 1
  %17 = load ptr, ptr %9, align 8, !tbaa !30
  store ptr %17, ptr %16, align 8, !tbaa !46
  %18 = getelementptr inbounds nuw %"class.cv::bioinspired::ParvoRetinaFilter::Parallel_OPL_OnOffWaysComputing", ptr %15, i32 0, i32 2
  %19 = load ptr, ptr %10, align 8, !tbaa !30
  store ptr %19, ptr %18, align 8, !tbaa !49
  %20 = getelementptr inbounds nuw %"class.cv::bioinspired::ParvoRetinaFilter::Parallel_OPL_OnOffWaysComputing", ptr %15, i32 0, i32 3
  %21 = load ptr, ptr %11, align 8, !tbaa !30
  store ptr %21, ptr %20, align 8, !tbaa !50
  %22 = getelementptr inbounds nuw %"class.cv::bioinspired::ParvoRetinaFilter::Parallel_OPL_OnOffWaysComputing", ptr %15, i32 0, i32 4
  %23 = load ptr, ptr %12, align 8, !tbaa !30
  store ptr %23, ptr %22, align 8, !tbaa !51
  %24 = getelementptr inbounds nuw %"class.cv::bioinspired::ParvoRetinaFilter::Parallel_OPL_OnOffWaysComputing", ptr %15, i32 0, i32 5
  %25 = load ptr, ptr %13, align 8, !tbaa !30
  store ptr %25, ptr %24, align 8, !tbaa !52
  %26 = getelementptr inbounds nuw %"class.cv::bioinspired::ParvoRetinaFilter::Parallel_OPL_OnOffWaysComputing", ptr %15, i32 0, i32 6
  %27 = load ptr, ptr %14, align 8, !tbaa !30
  store ptr %27, ptr %26, align 8, !tbaa !53
  ret void
}

; Function Attrs: inlinehint mustprogress nounwind uwtable
define linkonce_odr hidden noundef nonnull align 4 dereferenceable(4) ptr @_ZNSt8valarrayIfEixEm(ptr noundef nonnull align 8 dereferenceable(16) %0, i64 noundef %1) #6 comdat align 2 {
  %3 = alloca ptr, align 8
  %4 = alloca i64, align 8
  store ptr %0, ptr %3, align 8, !tbaa !23
  store i64 %1, ptr %4, align 8, !tbaa !24
  %5 = load ptr, ptr %3, align 8
  %6 = getelementptr inbounds nuw %"class.std::valarray", ptr %5, i32 0, i32 1
  %7 = load ptr, ptr %6, align 8, !tbaa !26
  %8 = load i64, ptr %4, align 8, !tbaa !24
  %9 = getelementptr inbounds nuw float, ptr %7, i64 %8
  ret ptr %9
}

; Function Attrs: inlinehint mustprogress nounwind uwtable
define linkonce_odr hidden void @_ZN2cv5RangeC2Eii(ptr noundef nonnull align 4 dereferenceable(8) %0, i32 noundef %1, i32 noundef %2) unnamed_addr #6 comdat align 2 {
  %4 = alloca ptr, align 8
  %5 = alloca i32, align 4
  %6 = alloca i32, align 4
  store ptr %0, ptr %4, align 8, !tbaa !39
  store i32 %1, ptr %5, align 4, !tbaa !8
  store i32 %2, ptr %6, align 4, !tbaa !8
  %7 = load ptr, ptr %4, align 8
  %8 = getelementptr inbounds nuw %"class.cv::Range", ptr %7, i32 0, i32 0
  %9 = load i32, ptr %5, align 4, !tbaa !8
  store i32 %9, ptr %8, align 4, !tbaa !41
  %10 = getelementptr inbounds nuw %"class.cv::Range", ptr %7, i32 0, i32 1
  %11 = load i32, ptr %6, align 4, !tbaa !8
  store i32 %11, ptr %10, align 4, !tbaa !43
  ret void
}

; Function Attrs: inlinehint mustprogress nounwind uwtable
define linkonce_odr hidden noundef i32 @_ZN2cv11bioinspired14TemplateBufferIfE11getNBpixelsEv(ptr noundef nonnull align 8 dereferenceable(64) %0) #6 comdat align 2 {
  %2 = alloca ptr, align 8
  store ptr %0, ptr %2, align 8, !tbaa !37
  %3 = load ptr, ptr %2, align 8
  %4 = getelementptr inbounds nuw %"class.cv::bioinspired::TemplateBuffer", ptr %3, i32 0, i32 5
  %5 = load i64, ptr %4, align 8, !tbaa !38
  %6 = trunc i64 %5 to i32
  ret i32 %6
}

; Function Attrs: mustprogress uwtable
define hidden void @_ZN2cv11bioinspired17ParvoRetinaFilter23_OPL_OnOffWaysComputingEv(ptr noundef nonnull align 8 dereferenceable(304) %0) #4 align 2 personality ptr @__gxx_personality_v0 {
  %2 = alloca ptr, align 8
  %3 = alloca %"class.cv::Range", align 4
  %4 = alloca %"class.cv::bioinspired::ParvoRetinaFilter::Parallel_OPL_OnOffWaysComputing", align 8
  %5 = alloca ptr, align 8
  %6 = alloca i32, align 4
  store ptr %0, ptr %2, align 8, !tbaa !3
  %7 = load ptr, ptr %2, align 8
  call void @llvm.lifetime.start.p0(i64 8, ptr %3) #3
  %8 = getelementptr inbounds i8, ptr %7, i64 8
  %9 = getelementptr inbounds nuw %"class.cv::bioinspired::BasicRetinaFilter", ptr %8, i32 0, i32 0
  %10 = call noundef i32 @_ZN2cv11bioinspired14TemplateBufferIfE11getNBpixelsEv(ptr noundef nonnull align 8 dereferenceable(64) %9)
  call void @_ZN2cv5RangeC2Eii(ptr noundef nonnull align 4 dereferenceable(8) %3, i32 noundef 0, i32 noundef %10)
  call void @llvm.lifetime.start.p0(i64 56, ptr %4) #3
  %11 = getelementptr inbounds nuw %"class.cv::bioinspired::ParvoRetinaFilter", ptr %7, i32 0, i32 2
  %12 = call noundef nonnull align 4 dereferenceable(4) ptr @_ZNSt8valarrayIfEixEm(ptr noundef nonnull align 8 dereferenceable(16) %11, i64 noundef 0) #3
  %13 = getelementptr inbounds nuw %"class.cv::bioinspired::ParvoRetinaFilter", ptr %7, i32 0, i32 3
  %14 = call noundef nonnull align 4 dereferenceable(4) ptr @_ZNSt8valarrayIfEixEm(ptr noundef nonnull align 8 dereferenceable(16) %13, i64 noundef 0) #3
  %15 = getelementptr inbounds nuw %"class.cv::bioinspired::ParvoRetinaFilter", ptr %7, i32 0, i32 6
  %16 = call noundef nonnull align 4 dereferenceable(4) ptr @_ZNSt8valarrayIfEixEm(ptr noundef nonnull align 8 dereferenceable(16) %15, i64 noundef 0) #3
  %17 = getelementptr inbounds nuw %"class.cv::bioinspired::ParvoRetinaFilter", ptr %7, i32 0, i32 7
  %18 = call noundef nonnull align 4 dereferenceable(4) ptr @_ZNSt8valarrayIfEixEm(ptr noundef nonnull align 8 dereferenceable(16) %17, i64 noundef 0) #3
  %19 = getelementptr inbounds nuw %"class.cv::bioinspired::ParvoRetinaFilter", ptr %7, i32 0, i32 4
  %20 = call noundef nonnull align 4 dereferenceable(4) ptr @_ZNSt8valarrayIfEixEm(ptr noundef nonnull align 8 dereferenceable(16) %19, i64 noundef 0) #3
  %21 = getelementptr inbounds nuw %"class.cv::bioinspired::ParvoRetinaFilter", ptr %7, i32 0, i32 5
  %22 = call noundef nonnull align 4 dereferenceable(4) ptr @_ZNSt8valarrayIfEixEm(ptr noundef nonnull align 8 dereferenceable(16) %21, i64 noundef 0) #3
  call void @_ZN2cv11bioinspired17ParvoRetinaFilter31Parallel_OPL_OnOffWaysComputingC2EPfS3_S3_S3_S3_S3_(ptr noundef nonnull align 8 dereferenceable(56) %4, ptr noundef %12, ptr noundef %14, ptr noundef %16, ptr noundef %18, ptr noundef %20, ptr noundef %22)
  invoke void @_ZN2cv13parallel_for_ERKNS_5RangeERKNS_16ParallelLoopBodyEd(ptr noundef nonnull align 4 dereferenceable(8) %3, ptr noundef nonnull align 8 dereferenceable(8) %4, double noundef -1.000000e+00)
          to label %23 unwind label %24

23:                                               ; preds = %1
  call void @_ZN2cv16ParallelLoopBodyD2Ev(ptr noundef nonnull align 8 dereferenceable(56) %4) #3
  call void @llvm.lifetime.end.p0(i64 56, ptr %4) #3
  call void @llvm.lifetime.end.p0(i64 8, ptr %3) #3
  ret void

24:                                               ; preds = %1
  %25 = landingpad { ptr, i32 }
          cleanup
  %26 = extractvalue { ptr, i32 } %25, 0
  store ptr %26, ptr %5, align 8
  %27 = extractvalue { ptr, i32 } %25, 1
  store i32 %27, ptr %6, align 4
  call void @_ZN2cv16ParallelLoopBodyD2Ev(ptr noundef nonnull align 8 dereferenceable(56) %4) #3
  call void @llvm.lifetime.end.p0(i64 56, ptr %4) #3
  call void @llvm.lifetime.end.p0(i64 8, ptr %3) #3
  br label %28

28:                                               ; preds = %24
  %29 = load ptr, ptr %5, align 8
  %30 = load i32, ptr %6, align 4
  %31 = insertvalue { ptr, i32 } poison, ptr %29, 0
  %32 = insertvalue { ptr, i32 } %31, i32 %30, 1
  resume { ptr, i32 } %32
}