; Function Attrs: mustprogress uwtable
define hidden void @_ZN2cv11bioinspired17ParvoRetinaFilter23_OPL_OnOffWaysComputingEv(ptr noundef nonnull readonly align 8 captures(none) dereferenceable(304) %0) local_unnamed_addr #3 align 2 personality ptr @__gxx_personality_v0 {
  %2 = alloca %"class.cv::Range", align 4
  %3 = alloca %"class.cv::bioinspired::ParvoRetinaFilter::Parallel_OPL_OnOffWaysComputing", align 8
  call void @llvm.lifetime.start.p0(i64 8, ptr nonnull %2) #13
  %4 = getelementptr inbounds nuw i8, ptr %0, i64 56
  %5 = load i64, ptr %4, align 8, !tbaa !104
  %6 = trunc i64 %5 to i32
  store i32 0, ptr %2, align 4, !tbaa !105
  %7 = getelementptr inbounds nuw i8, ptr %2, i64 4
  store i32 %6, ptr %7, align 4, !tbaa !107
  call void @llvm.lifetime.start.p0(i64 56, ptr nonnull %3) #13
  %8 = getelementptr inbounds nuw i8, ptr %0, i64 184
  %9 = load ptr, ptr %8, align 8, !tbaa !12
  %10 = getelementptr inbounds nuw i8, ptr %0, i64 200
  %11 = load ptr, ptr %10, align 8, !tbaa !12
  %12 = getelementptr inbounds nuw i8, ptr %0, i64 248
  %13 = load ptr, ptr %12, align 8, !tbaa !12
  %14 = getelementptr inbounds nuw i8, ptr %0, i64 264
  %15 = load ptr, ptr %14, align 8, !tbaa !12
  %16 = getelementptr inbounds nuw i8, ptr %0, i64 216
  %17 = load ptr, ptr %16, align 8, !tbaa !12
  %18 = getelementptr inbounds nuw i8, ptr %0, i64 232
  %19 = load ptr, ptr %18, align 8, !tbaa !12
  store ptr getelementptr inbounds nuw inrange(-16, 24) (i8, ptr @_ZTVN2cv11bioinspired17ParvoRetinaFilter31Parallel_OPL_OnOffWaysComputingE, i64 16), ptr %3, align 8, !tbaa !3
  %20 = getelementptr inbounds nuw i8, ptr %3, i64 8
  store ptr %9, ptr %20, align 8, !tbaa !108
  %21 = getelementptr inbounds nuw i8, ptr %3, i64 16
  store ptr %11, ptr %21, align 8, !tbaa !111
  %22 = getelementptr inbounds nuw i8, ptr %3, i64 24
  store ptr %13, ptr %22, align 8, !tbaa !112
  %23 = getelementptr inbounds nuw i8, ptr %3, i64 32
  store ptr %15, ptr %23, align 8, !tbaa !113
  %24 = getelementptr inbounds nuw i8, ptr %3, i64 40
  store ptr %17, ptr %24, align 8, !tbaa !114
  %25 = getelementptr inbounds nuw i8, ptr %3, i64 48
  store ptr %19, ptr %25, align 8, !tbaa !115
  invoke void @_ZN2cv13parallel_for_ERKNS_5RangeERKNS_16ParallelLoopBodyEd(ptr noundef nonnull align 4 dereferenceable(8) %2, ptr noundef nonnull align 8 dereferenceable(8) %3, double noundef -1.000000e+00)
          to label %26 unwind label %27

26:                                               ; preds = %1
  call void @_ZN2cv16ParallelLoopBodyD2Ev(ptr noundef nonnull align 8 dereferenceable(56) %3) #13
  call void @llvm.lifetime.end.p0(i64 56, ptr nonnull %3) #13
  call void @llvm.lifetime.end.p0(i64 8, ptr nonnull %2) #13
  ret void

27:                                               ; preds = %1
  %28 = landingpad { ptr, i32 }
          cleanup
  call void @_ZN2cv16ParallelLoopBodyD2Ev(ptr noundef nonnull align 8 dereferenceable(56) %3) #13
  call void @llvm.lifetime.end.p0(i64 56, ptr nonnull %3) #13
  call void @llvm.lifetime.end.p0(i64 8, ptr nonnull %2) #13
  resume { ptr, i32 } %28
}